; Function Attrs: mustprogress uwtable
define i64 @_ZNK21RelatedPacketDelegate8sizeHintERK20QStyleOptionViewItemRK11QModelIndex(ptr noundef nonnull align 8 dereferenceable(36) %0, ptr noundef nonnull align 8 dereferenceable(208) %1, ptr noundef nonnull align 8 dereferenceable(24) %2) unnamed_addr #0 align 2 {
  %4 = alloca %class.QList.22, align 8
  %5 = load ptr, ptr @mainApp, align 8
  %.not = icmp eq ptr %5, null
  br i1 %.not, label %_ZN5QListIiED2Ev.exit.thread, label %6

6:                                                ; preds = %3
  %7 = tail call noundef ptr @_ZN15MainApplication10mainWindowEv(ptr noundef nonnull align 8 dereferenceable(216) %5)
  %.not13 = icmp eq ptr %7, null
  br i1 %.not13, label %_ZN5QListIiED2Ev.exit.thread, label %8

8:                                                ; preds = %6
  %9 = load ptr, ptr @mainApp, align 8
  %10 = tail call noundef ptr @_ZN15MainApplication10mainWindowEv(ptr noundef nonnull align 8 dereferenceable(216) %9)
  %11 = tail call noundef ptr @_ZNK11QMetaObject4castEPK7QObject(ptr noundef nonnull align 8 dereferenceable(56) @_ZN10MainWindow16staticMetaObjectE, ptr noundef %10)
  %.not14.not = icmp eq ptr %11, null
  br i1 %.not14.not, label %_ZN5QListIiED2Ev.exit.thread, label %12

12:                                               ; preds = %8
  call void @_ZN10MainWindow12selectedRowsEb(ptr dead_on_unwind nonnull writable sret(%class.QList.22) align 8 %4, ptr noundef nonnull align 8 dereferenceable(272) %11, i1 noundef zeroext false)
  %13 = getelementptr inbounds i8, ptr %4, i64 16
  %14 = load i64, ptr %13, align 8
  %15 = icmp sgt i64 %14, 1
  %16 = load ptr, ptr %4, align 8
  %.not.i.i.i = icmp eq ptr %16, null
  br i1 %.not.i.i.i, label %_ZN5QListIiED2Ev.exit, label %_ZN17QArrayDataPointerIiE5derefEv.exit.i.i

_ZN17QArrayDataPointerIiE5derefEv.exit.i.i:       ; preds = %12
  %17 = atomicrmw sub ptr %16, i32 1 seq_cst, align 4
  %.not.i.i = icmp eq i32 %17, 1
  br i1 %.not.i.i, label %18, label %_ZN5QListIiED2Ev.exit

18:                                               ; preds = %_ZN17QArrayDataPointerIiE5derefEv.exit.i.i
  %19 = load ptr, ptr %4, align 8
  call void @_ZN10QArrayData10deallocateEPS_xx(ptr noundef %19, i64 noundef 4, i64 noundef 8) #15
  br i1 %15, label %20, label %_ZN5QListIiED2Ev.exit.thread

_ZN5QListIiED2Ev.exit:                            ; preds = %_ZN17QArrayDataPointerIiE5derefEv.exit.i.i, %12
  br i1 %15, label %20, label %_ZN5QListIiED2Ev.exit.thread

20:                                               ; preds = %18, %_ZN5QListIiED2Ev.exit
  %21 = call i64 @_ZNK19QStyledItemDelegate8sizeHintERK20QStyleOptionViewItemRK11QModelIndex(ptr noundef nonnull align 8 dereferenceable(16) %0, ptr noundef nonnull align 8 dereferenceable(208) %1, ptr noundef nonnull align 8 dereferenceable(24) %2)
  %.sroa.016.0.extract.trunc = trunc i64 %21 to i32
  br label %27

_ZN5QListIiED2Ev.exit.thread:                     ; preds = %8, %18, %_ZN5QListIiED2Ev.exit, %6, %3
  %22 = getelementptr inbounds i8, ptr %1, i64 32
  %23 = call noundef i32 @_ZNK12QFontMetrics6heightEv(ptr noundef nonnull align 8 dereferenceable(8) %22)
  %24 = call i64 @_ZNK19QStyledItemDelegate8sizeHintERK20QStyleOptionViewItemRK11QModelIndex(ptr noundef nonnull align 8 dereferenceable(16) %0, ptr noundef nonnull align 8 dereferenceable(208) %1, ptr noundef nonnull align 8 dereferenceable(24) %2)
  %.sroa.015.0.extract.trunc = trunc i64 %24 to i32
  %25 = add i32 %23, %.sroa.015.0.extract.trunc
  %26 = call i64 @_ZNK19QStyledItemDelegate8sizeHintERK20QStyleOptionViewItemRK11QModelIndex(ptr noundef nonnull align 8 dereferenceable(16) %0, ptr noundef nonnull align 8 dereferenceable(208) %1, ptr noundef nonnull align 8 dereferenceable(24) %2)
  br label %27

27:                                               ; preds = %_ZN5QListIiED2Ev.exit.thread, %20
  %.sroa.016.0 = phi i32 [ %25, %_ZN5QListIiED2Ev.exit.thread ], [ %.sroa.016.0.extract.trunc, %20 ]
  %.sroa.3.0.in.in = phi i64 [ %26, %_ZN5QListIiED2Ev.exit.thread ], [ %21, %20 ]
  %.sroa.3.0.in = and i64 %.sroa.3.0.in.in, -4294967296
  %.sroa.016.0.insert.ext = zext i32 %.sroa.016.0 to i64
  %.sroa.016.0.insert.insert = or disjoint i64 %.sroa.3.0.in, %.sroa.016.0.insert.ext
  ret i64 %.sroa.016.0.insert.insert
}